(i__main__
Map
p0
(dp1
S'_hedges'
p2
(lp3
(lp4
S'q1'
p5
aS'q2'
p6
aa(lp7
g6
aS'q3'
p8
aa(lp9
g8
aS'q4'
p10
aa(lp11
g10
aS'q5'
p12
aa(lp13
g12
aS'q6'
p14
aa(lp15
g14
aS'q7'
p16
aa(lp17
g16
aS'q8'
p18
aa(lp19
g18
aS'q9'
p20
aa(lp21
g20
aS'q10'
p22
aa(lp23
g22
aS'q11'
p24
aa(lp25
g24
aS'q12'
p26
aa(lp27
S'm'
p28
aS'n'
p29
aa(lp30
g29
aS'r'
p31
aa(lp32
g31
aS's'
p33
aa(lp34
g33
aS't'
p35
aa(lp36
g35
aS'u'
p37
aa(lp38
g37
aS'v'
p39
aa(lp40
g39
aS'w'
p41
aa(lp42
g41
aS'x'
p43
aa(lp44
g43
aS'y'
p45
aa(lp46
g45
aS'z'
p47
aa(lp48
g47
aS'z1'
p49
aa(lp50
g49
aS'z2'
p51
aa(lp52
g51
aS'z3'
p53
aa(lp54
g53
aS'z4'
p55
aa(lp56
g55
aS'z5'
p57
aa(lp58
S'l'
p59
aS'k'
p60
aa(lp61
g60
aS'j'
p62
aa(lp63
g62
aS'i'
p64
aa(lp65
g64
aS'h'
p66
aa(lp67
g66
aS'g'
p68
aa(lp69
g68
aS'f'
p70
aa(lp71
g70
aS'e'
p72
aa(lp73
g72
aS'c'
p74
aa(lp75
g74
aS'b'
p76
aa(lp77
g76
aS'a'
p78
aasS'_graph'
p79
ccopy_reg
_reconstructor
p80
(cnetworkx.classes.graph
Graph
p81
c__builtin__
object
p82
Ntp83
Rp84
(dp85
S'adjlist_inner_dict_factory'
p86
c__builtin__
dict
p87
sS'node_dict_factory'
p88
g87
sS'edge_attr_dict_factory'
p89
g87
sS'_node'
p90
(dp91
g5
(dp92
sg8
(dp93
sg6
(dp94
sg12
(dp95
sg10
(dp96
sg16
(dp97
sg14
(dp98
sg20
(dp99
sg18
(dp100
sS'g7'
p101
(dp102
sS'g6'
p103
(dp104
sS'g5'
p105
(dp106
sS'g4'
p107
(dp108
sS'r12'
p109
(dp110
sS'r13'
p111
(dp112
sS'r10'
p113
(dp114
sS'r11'
p115
(dp116
sI805
(dp117
sI601
(dp118
sI602
(dp119
sI603
(dp120
sI604
(dp121
sI605
(dp122
sI606
(dp123
sI607
(dp124
sI608
(dp125
sI101
(dp126
sI102
(dp127
sI103
(dp128
sI104
(dp129
sI105
(dp130
sI106
(dp131
sI107
(dp132
sI108
(dp133
sI109
(dp134
sI110
(dp135
sI111
(dp136
sg35
(dp137
sg66
(dp138
sg43
(dp139
sS'j4'
p140
(dp141
sS'j0'
p142
(dp143
sS'j1'
p144
(dp145
sS'w11'
p146
(dp147
sS'w10'
p148
(dp149
sS'w7'
p150
(dp151
sS'w6'
p152
(dp153
sS'w5'
p154
(dp155
sS'w4'
p156
(dp157
sS'b0'
p158
(dp159
sS'w2'
p160
(dp161
sS'w1'
p162
(dp163
sS'b3'
p164
(dp165
sS'w9'
p166
(dp167
sS'w8'
p168
(dp169
sI701
(dp170
sI702
(dp171
sI703
(dp172
sI704
(dp173
sI705
(dp174
sI706
(dp175
sI707
(dp176
sI708
(dp177
sI709
(dp178
sI201
(dp179
sI202
(dp180
sI203
(dp181
sI204
(dp182
sI205
(dp183
sI206
(dp184
sI207
(dp185
sg24
(dp186
sg22
(dp187
sg26
(dp188
sg55
(dp189
sg57
(dp190
sg49
(dp191
sg51
(dp192
sg53
(dp193
sS'r4'
p194
(dp195
sS'r5'
p196
(dp197
sg74
(dp198
sS'r7'
p199
(dp200
sS'r1'
p201
(dp202
sg68
(dp203
sS'r3'
p204
(dp205
sg60
(dp206
sS'r8'
p207
(dp208
sS'r9'
p209
(dp210
sg33
(dp211
sg41
(dp212
sS'h2'
p213
(dp214
sS'h3'
p215
(dp216
sS'h0'
p217
(dp218
sS'h1'
p219
(dp220
sS'h6'
p221
(dp222
sS'h7'
p223
(dp224
sS'h4'
p225
(dp226
sS'h5'
p227
(dp228
sI901
(dp229
sI801
(dp230
sI802
(dp231
sI803
(dp232
sI804
(dp233
sI504
(dp234
sS'j3'
p235
(dp236
sI301
(dp237
sI302
(dp238
sI303
(dp239
sI304
(dp240
sI305
(dp241
sI306
(dp242
sS'r6'
p243
(dp244
sS'j2'
p245
(dp246
sS'c3'
p247
(dp248
sS'c2'
p249
(dp250
sS'c1'
p251
(dp252
sS'c0'
p253
(dp254
sS'c5'
p255
(dp256
sS'c4'
p257
(dp258
sS'b4'
p259
(dp260
sg76
(dp261
sS'r2'
p262
(dp263
sg70
(dp264
sg62
(dp265
sS'b6'
p266
(dp267
sg29
(dp268
sg31
(dp269
sg39
(dp270
sS'w3'
p271
(dp272
sg47
(dp273
sS'b1'
p274
(dp275
sS'f0'
p276
(dp277
sS'f1'
p278
(dp279
sS'f2'
p280
(dp281
sS'f3'
p282
(dp283
sS'b2'
p284
(dp285
sI902
(dp286
sI903
(dp287
sI904
(dp288
sI905
(dp289
sI906
(dp290
sI907
(dp291
sI401
(dp292
sI402
(dp293
sI403
(dp294
sI404
(dp295
sS'g3'
p296
(dp297
sS'g2'
p298
(dp299
sS'g1'
p300
(dp301
sS'g0'
p302
(dp303
sS'k3'
p304
(dp305
sS'k2'
p306
(dp307
sS'k1'
p308
(dp309
sS'k0'
p310
(dp311
sS'k6'
p312
(dp313
sS'k5'
p314
(dp315
sS'k4'
p316
(dp317
sS'b5'
p318
(dp319
sS'i8'
p320
(dp321
sS'a10'
p322
(dp323
sS'i1'
p324
(dp325
sS'i0'
p326
(dp327
sS'i3'
p328
(dp329
sS'i2'
p330
(dp331
sS'i5'
p332
(dp333
sS'i4'
p334
(dp335
sS'i7'
p336
(dp337
sS'i6'
p338
(dp339
sS'a1'
p340
(dp341
sS'a0'
p342
(dp343
sS'a3'
p344
(dp345
sS'a2'
p346
(dp347
sS'a5'
p348
(dp349
sS'a4'
p350
(dp351
sS'a7'
p352
(dp353
sS'a6'
p354
(dp355
sS'a9'
p356
(dp357
sS'a8'
p358
(dp359
sg59
(dp360
sg78
(dp361
sg72
(dp362
sg64
(dp363
sg28
(dp364
sg37
(dp365
sI501
(dp366
sI502
(dp367
sI503
(dp368
sg45
(dp369
sI505
(dp370
sI506
(dp371
sI507
(dp372
sI508
(dp373
ssS'graph'
p374
(dp375
sS'_adj'
p376
(dp377
g5
(dp378
g6
(dp379
sg201
(dp380
sg162
(dp381
ssg8
(dp382
g194
(dp383
sg196
(dp384
sg6
(dp385
sg271
(dp386
sg10
(dp387
ssg6
(dp388
g5
g379
sg194
(dp389
sg8
g385
sg160
(dp390
ssg12
(dp391
g152
(dp392
sg243
(dp393
sg10
(dp394
sg14
(dp395
ssg10
(dp396
g196
(dp397
sg8
g387
sg12
g394
sg243
(dp398
sg154
(dp399
sg156
(dp400
ssg16
(dp401
g14
(dp402
sg18
(dp403
sg207
(dp404
sg209
(dp405
sg150
(dp406
sg168
(dp407
ssg14
(dp408
g150
(dp409
sg199
(dp410
sg12
g395
sg16
g402
ssg20
(dp411
g18
(dp412
sg22
(dp413
sg166
(dp414
ssg18
(dp415
g20
g412
sg115
(dp416
sg113
(dp417
sg16
g403
sg168
(dp418
ssg101
(dp419
g103
(dp420
sI508
(dp421
ssg103
(dp422
g101
g420
sg105
(dp423
sI507
(dp424
ssg105
(dp425
g103
g423
sI506
(dp426
sg107
(dp427
ssg107
(dp428
I505
(dp429
sg105
g427
sg296
(dp430
ssg109
(dp431
g29
(dp432
sg111
(dp433
sg115
(dp434
ssg111
(dp435
g28
(dp436
sg109
g433
sg22
(dp437
ssg113
(dp438
g18
g417
sg33
(dp439
sg209
(dp440
sg115
(dp441
ssg115
(dp442
g18
g416
sg31
(dp443
sg109
g434
sg113
g441
ssI805
(dp444
g140
(dp445
ssI601
(dp446
g217
(dp447
ssI602
(dp448
g219
(dp449
ssI603
(dp450
g213
(dp451
ssI604
(dp452
g215
(dp453
ssI605
(dp454
g225
(dp455
ssI606
(dp456
g227
(dp457
ssI607
(dp458
g221
(dp459
ssI608
(dp460
g223
(dp461
ssI101
(dp462
g342
(dp463
ssI102
(dp464
g340
(dp465
ssI103
(dp466
g346
(dp467
ssI104
(dp468
g344
(dp469
ssI105
(dp470
g350
(dp471
ssI106
(dp472
g348
(dp473
ssI107
(dp474
g354
(dp475
ssI108
(dp476
g352
(dp477
ssI109
(dp478
g358
(dp479
ssI110
(dp480
g356
(dp481
ssI111
(dp482
g322
(dp483
ssg35
(dp484
g66
(dp485
sg33
(dp486
sg37
(dp487
ssg66
(dp488
g64
(dp489
sg217
(dp490
sg35
g485
sg68
(dp491
ssg43
(dp492
g45
(dp493
sg74
(dp494
sg41
(dp495
ssg140
(dp496
I805
g445
sg235
(dp497
ssg142
(dp498
I801
(dp499
sg62
(dp500
sg144
(dp501
ssg144
(dp502
I802
(dp503
sg142
g501
sg245
(dp504
ssg146
(dp505
g26
(dp506
sg148
(dp507
ssg148
(dp508
g24
(dp509
sg146
g507
sg166
(dp510
ssg150
(dp511
g152
(dp512
sg14
g409
sg16
g406
sg168
(dp513
ssg152
(dp514
g150
g512
sg154
(dp515
sg12
g392
ssg154
(dp516
g152
g515
sg156
(dp517
sg10
g399
ssg156
(dp518
g154
g517
sg271
(dp519
sg10
g400
ssg158
(dp520
I201
(dp521
sg76
(dp522
sg274
(dp523
ssg160
(dp524
g6
g390
sg271
(dp525
sg162
(dp526
ssg162
(dp527
g5
g381
sg160
g526
ssg164
(dp528
g259
(dp529
sI204
(dp530
sg284
(dp531
ssg166
(dp532
g20
g414
sg148
g510
sg168
(dp533
ssg168
(dp534
g150
g513
sg18
g418
sg16
g407
sg166
g533
ssI701
(dp535
g326
(dp536
ssI702
(dp537
g324
(dp538
ssI703
(dp539
g330
(dp540
ssI704
(dp541
g328
(dp542
ssI705
(dp543
g334
(dp544
ssI706
(dp545
g332
(dp546
ssI707
(dp547
g338
(dp548
ssI708
(dp549
g336
(dp550
ssI709
(dp551
g320
(dp552
ssI201
(dp553
g158
g521
ssI202
(dp554
g274
(dp555
ssI203
(dp556
g284
(dp557
ssI204
(dp558
g164
g530
ssI205
(dp559
g259
(dp560
ssI206
(dp561
g318
(dp562
ssI207
(dp563
g266
(dp564
ssg24
(dp565
g148
g509
sg22
(dp566
sg26
(dp567
ssg22
(dp568
g20
g413
sg24
g566
sg111
g437
ssg26
(dp569
g24
g567
sg146
g506
ssg55
(dp570
g57
(dp571
sg262
(dp572
sg53
(dp573
ssg57
(dp574
g55
g571
sg201
(dp575
ssg49
(dp576
g194
(dp577
sg78
(dp578
sg47
(dp579
sg51
(dp580
ssg51
(dp581
g204
(dp582
sg49
g580
sg53
(dp583
ssg53
(dp584
g55
g573
sg51
g583
sg204
(dp585
ssg194
(dp586
g196
(dp587
sg8
g383
sg6
g389
sg49
g577
sg204
(dp588
ssg196
(dp589
g194
g587
sg243
(dp590
sg47
(dp591
sg8
g384
sg10
g397
ssg74
(dp592
g43
g494
sg253
(dp593
sg76
(dp594
sg72
(dp595
ssg199
(dp596
g243
(dp597
sg207
(dp598
sg14
g410
ssg201
(dp599
g5
g380
sg57
g575
sg262
(dp600
ssg68
(dp601
g66
g491
sg302
(dp602
sg37
(dp603
sg70
(dp604
ssg204
(dp605
g194
g588
sg51
g582
sg262
(dp606
sg53
g585
ssg60
(dp607
g62
(dp608
sg59
(dp609
sg310
(dp610
sg29
(dp611
ssg207
(dp612
g199
g598
sg209
(dp613
sg16
g404
sg39
(dp614
ssg209
(dp615
g37
(dp616
sg207
g613
sg16
g405
sg113
g440
ssg33
(dp617
g64
(dp618
sg31
(dp619
sg35
g486
sg113
g439
ssg41
(dp620
g43
g495
sg72
(dp621
sg39
(dp622
ssg213
(dp623
g215
(dp624
sI603
g451
sg219
(dp625
ssg215
(dp626
g213
g624
sI604
g453
sg225
(dp627
ssg217
(dp628
g66
g490
sg219
(dp629
sI601
g447
ssg219
(dp630
g213
g625
sg217
g629
sI602
g449
ssg221
(dp631
I607
g459
sg223
(dp632
sg227
(dp633
ssg223
(dp634
I608
g461
sg221
g632
ssg225
(dp635
g215
g627
sI605
g455
sg227
(dp636
ssg227
(dp637
g221
g633
sI606
g457
sg225
g636
ssI901
(dp638
g310
(dp639
ssI801
(dp640
g142
g499
ssI802
(dp641
g144
g503
ssI803
(dp642
g245
(dp643
ssI804
(dp644
g235
(dp645
ssI504
(dp646
g296
(dp647
ssg235
(dp648
g140
g497
sI804
g645
sg245
(dp649
ssI301
(dp650
g253
(dp651
ssI302
(dp652
g251
(dp653
ssI303
(dp654
g249
(dp655
ssI304
(dp656
g247
(dp657
ssI305
(dp658
g257
(dp659
ssI306
(dp660
g255
(dp661
ssg243
(dp662
g45
(dp663
sg196
g590
sg199
g597
sg12
g393
sg10
g398
ssg245
(dp664
I803
g643
sg144
g504
sg235
g649
ssg247
(dp665
I304
g657
sg249
(dp666
sg257
(dp667
ssg249
(dp668
g247
g666
sg251
(dp669
sI303
g655
ssg251
(dp670
g249
g669
sg253
(dp671
sI302
g653
ssg253
(dp672
g74
g593
sg251
g671
sI301
g651
ssg255
(dp673
I306
g661
sg257
(dp674
ssg257
(dp675
g247
g667
sI305
g659
sg255
g674
ssg259
(dp676
g318
(dp677
sI205
g560
sg164
g529
ssg76
(dp678
g78
(dp679
sg45
(dp680
sg74
g594
sg158
g522
ssg262
(dp681
g55
g572
sg201
g600
sg204
g606
ssg70
(dp682
g276
(dp683
sg72
(dp684
sg68
g604
sg39
(dp685
ssg62
(dp686
g64
(dp687
sg60
g608
sg31
(dp688
sg142
g500
ssg266
(dp689
g318
(dp690
sI207
g564
ssg29
(dp691
g109
g432
sg60
g611
sg31
(dp692
sg28
(dp693
ssg31
(dp694
g33
g619
sg115
g443
sg62
g688
sg29
g692
ssg39
(dp695
g207
g614
sg37
(dp696
sg41
g622
sg70
g685
ssg271
(dp697
g8
g386
sg156
g519
sg160
g525
ssg47
(dp698
g45
(dp699
sg196
g591
sg49
g579
ssg274
(dp700
I202
g555
sg158
g523
sg284
(dp701
ssg276
(dp702
I401
(dp703
sg278
(dp704
sg70
g683
ssg278
(dp705
g276
g704
sg280
(dp706
sI402
(dp707
ssg280
(dp708
g278
g706
sg282
(dp709
sI403
(dp710
ssg282
(dp711
g280
g709
sI404
(dp712
ssg284
(dp713
I203
g557
sg274
g701
sg164
g531
ssI902
(dp714
g308
(dp715
ssI903
(dp716
g306
(dp717
ssI904
(dp718
g304
(dp719
ssI905
(dp720
g316
(dp721
ssI906
(dp722
g314
(dp723
ssI907
(dp724
g312
(dp725
ssI401
(dp726
g276
g703
ssI402
(dp727
g278
g707
ssI403
(dp728
g280
g710
ssI404
(dp729
g282
g712
ssg296
(dp730
I504
g647
sg107
g430
sg298
(dp731
ssg298
(dp732
g296
g731
sg300
(dp733
sI503
(dp734
ssg300
(dp735
g298
g733
sI502
(dp736
sg302
(dp737
ssg302
(dp738
g300
g737
sg68
g602
sI501
(dp739
ssg304
(dp740
I904
g719
sg306
(dp741
sg316
(dp742
ssg306
(dp743
g304
g741
sg308
(dp744
sI903
g717
ssg308
(dp745
g306
g744
sg310
(dp746
sI902
g715
ssg310
(dp747
g60
g610
sg308
g746
sI901
g639
ssg312
(dp748
I907
g725
sg314
(dp749
ssg314
(dp750
I906
g723
sg312
g749
sg316
(dp751
ssg316
(dp752
g304
g742
sI905
g721
sg314
g751
ssg318
(dp753
g259
g677
sg266
g690
sI206
g562
ssg320
(dp754
I709
g552
sg336
(dp755
ssg322
(dp756
g356
(dp757
sI111
g483
ssg324
(dp758
g326
(dp759
sg330
(dp760
sI702
g538
ssg326
(dp761
g64
(dp762
sg324
g759
sI701
g536
ssg328
(dp763
I704
g542
sg330
(dp764
sg334
(dp765
ssg330
(dp766
g324
g760
sg328
g764
sI703
g540
ssg332
(dp767
I706
g546
sg334
(dp768
sg338
(dp769
ssg334
(dp770
I705
g544
sg328
g765
sg332
g768
ssg336
(dp771
g320
g755
sI708
g550
sg338
(dp772
ssg338
(dp773
I707
g548
sg332
g769
sg336
g772
ssg340
(dp774
g342
(dp775
sg346
(dp776
sI102
g465
ssg342
(dp777
g78
(dp778
sg340
g775
sI101
g463
ssg344
(dp779
I104
g469
sg346
(dp780
sg350
(dp781
ssg346
(dp782
g340
g776
sg344
g780
sI103
g467
ssg348
(dp783
I106
g473
sg350
(dp784
sg354
(dp785
ssg350
(dp786
I105
g471
sg344
g781
sg348
g784
ssg352
(dp787
g358
(dp788
sI108
g477
sg354
(dp789
ssg354
(dp790
I107
g475
sg348
g785
sg352
g789
ssg356
(dp791
g358
(dp792
sg322
g757
sI110
g481
ssg358
(dp793
g356
g792
sI109
g479
sg352
g788
ssg59
(dp794
g60
g609
sg28
(dp795
ssg78
(dp796
g342
g778
sg76
g679
sg49
g578
ssg72
(dp797
g74
g595
sg41
g621
sg70
g684
ssg64
(dp798
g66
g489
sg33
g618
sg62
g687
sg326
g762
ssg28
(dp799
g59
g795
sg111
g436
sg29
g693
ssg37
(dp800
g209
g616
sg35
g487
sg68
g603
sg39
g696
ssI501
(dp801
g302
g739
ssI502
(dp802
g300
g736
ssI503
(dp803
g298
g734
ssg45
(dp804
g43
g493
sg243
g663
sg47
g699
sg76
g680
ssI505
(dp805
g107
g429
ssI506
(dp806
g105
g426
ssI507
(dp807
g103
g424
ssI508
(dp808
g101
g421
sssS'adjlist_outer_dict_factory'
p809
g87
sbsS'_pedges'
p810
(lp811
(lp812
g162
ag160
aa(lp813
g160
ag271
aa(lp814
g271
ag156
aa(lp815
g156
ag154
aa(lp816
g154
ag152
aa(lp817
g152
ag150
aa(lp818
g150
ag168
aa(lp819
g168
ag166
aa(lp820
g166
ag148
aa(lp821
g148
ag146
aa(lp822
g201
ag262
aa(lp823
g262
ag204
aa(lp824
g204
ag194
aa(lp825
g194
ag196
aa(lp826
g196
ag243
aa(lp827
g243
ag199
aa(lp828
g199
ag207
aa(lp829
g207
ag209
aa(lp830
g209
ag113
aa(lp831
g113
ag115
aa(lp832
g115
ag109
aa(lp833
g109
ag111
aasS'_tjpos'
p834
(dp835
I901
cnumpy.core.multiarray
_reconstruct
p836
(cnumpy
ndarray
p837
(I0
tp838
g76
tp839
Rp840
(I1
(I2
tp841
cnumpy
dtype
p842
(S'i4'
p843
I0
I1
tp844
Rp845
(I3
S'<'
p846
NNNI-1
I-1
I0
tp847
bI00
S'\x1e\x00\x00\x00K\x00\x00\x00'
p848
tp849
bsI902
g836
(g837
(I0
tp850
g76
tp851
Rp852
(I1
(I2
tp853
g845
I00
S'\x1e\x00\x00\x00P\x00\x00\x00'
p854
tp855
bsI903
g836
(g837
(I0
tp856
g76
tp857
Rp858
(I1
(I2
tp859
g845
I00
S'\x1e\x00\x00\x00U\x00\x00\x00'
p860
tp861
bsI904
g836
(g837
(I0
tp862
g76
tp863
Rp864
(I1
(I2
tp865
g845
I00
S'\x1e\x00\x00\x00Z\x00\x00\x00'
p866
tp867
bsI905
g836
(g837
(I0
tp868
g76
tp869
Rp870
(I1
(I2
tp871
g845
I00
S'\x1e\x00\x00\x00_\x00\x00\x00'
p872
tp873
bsI906
g836
(g837
(I0
tp874
g76
tp875
Rp876
(I1
(I2
tp877
g845
I00
S'\x1e\x00\x00\x00d\x00\x00\x00'
p878
tp879
bsI907
g836
(g837
(I0
tp880
g76
tp881
Rp882
(I1
(I2
tp883
g845
I00
S'\x1e\x00\x00\x00i\x00\x00\x00'
p884
tp885
bsI401
g836
(g837
(I0
tp886
g76
tp887
Rp888
(I1
(I2
tp889
g845
I00
S'\x9b\x00\x00\x00K\x00\x00\x00'
p890
tp891
bsI402
g836
(g837
(I0
tp892
g76
tp893
Rp894
(I1
(I2
tp895
g845
I00
S'\x9b\x00\x00\x00P\x00\x00\x00'
p896
tp897
bsI403
g836
(g837
(I0
tp898
g76
tp899
Rp900
(I1
(I2
tp901
g845
I00
S'\x9b\x00\x00\x00U\x00\x00\x00'
p902
tp903
bsI404
g836
(g837
(I0
tp904
g76
tp905
Rp906
(I1
(I2
tp907
g845
I00
S'\x9b\x00\x00\x00Z\x00\x00\x00'
p908
tp909
bsI801
g836
(g837
(I0
tp910
g76
tp911
Rp912
(I1
(I2
tp913
g845
I00
S'2\x00\x00\x00K\x00\x00\x00'
p914
tp915
bsI802
g836
(g837
(I0
tp916
g76
tp917
Rp918
(I1
(I2
tp919
g845
I00
S'2\x00\x00\x00P\x00\x00\x00'
p920
tp921
bsI803
g836
(g837
(I0
tp922
g76
tp923
Rp924
(I1
(I2
tp925
g845
I00
S'2\x00\x00\x00U\x00\x00\x00'
p926
tp927
bsI804
g836
(g837
(I0
tp928
g76
tp929
Rp930
(I1
(I2
tp931
g845
I00
S'2\x00\x00\x00Z\x00\x00\x00'
p932
tp933
bsI805
g836
(g837
(I0
tp934
g76
tp935
Rp936
(I1
(I2
tp937
g845
I00
S'2\x00\x00\x00_\x00\x00\x00'
p938
tp939
bsI301
g836
(g837
(I0
tp940
g76
tp941
Rp942
(I1
(I2
tp943
g845
I00
S'\xaa\x00\x00\x00K\x00\x00\x00'
p944
tp945
bsI302
g836
(g837
(I0
tp946
g76
tp947
Rp948
(I1
(I2
tp949
g845
I00
S'\xaa\x00\x00\x00P\x00\x00\x00'
p950
tp951
bsI303
g836
(g837
(I0
tp952
g76
tp953
Rp954
(I1
(I2
tp955
g845
I00
S'\xaa\x00\x00\x00U\x00\x00\x00'
p956
tp957
bsI304
g836
(g837
(I0
tp958
g76
tp959
Rp960
(I1
(I2
tp961
g845
I00
S'\xaa\x00\x00\x00Z\x00\x00\x00'
p962
tp963
bsI305
g836
(g837
(I0
tp964
g76
tp965
Rp966
(I1
(I2
tp967
g845
I00
S'\xaa\x00\x00\x00_\x00\x00\x00'
p968
tp969
bsI306
g836
(g837
(I0
tp970
g76
tp971
Rp972
(I1
(I2
tp973
g845
I00
S'\xaa\x00\x00\x00d\x00\x00\x00'
p974
tp975
bsI701
g836
(g837
(I0
tp976
g76
tp977
Rp978
(I1
(I2
tp979
g845
I00
S'F\x00\x00\x00K\x00\x00\x00'
p980
tp981
bsI702
g836
(g837
(I0
tp982
g76
tp983
Rp984
(I1
(I2
tp985
g845
I00
S'F\x00\x00\x00P\x00\x00\x00'
p986
tp987
bsI703
g836
(g837
(I0
tp988
g76
tp989
Rp990
(I1
(I2
tp991
g845
I00
S'F\x00\x00\x00U\x00\x00\x00'
p992
tp993
bsI704
g836
(g837
(I0
tp994
g76
tp995
Rp996
(I1
(I2
tp997
g845
I00
S'F\x00\x00\x00Z\x00\x00\x00'
p998
tp999
bsI705
g836
(g837
(I0
tp1000
g76
tp1001
Rp1002
(I1
(I2
tp1003
g845
I00
S'F\x00\x00\x00_\x00\x00\x00'
p1004
tp1005
bsI706
g836
(g837
(I0
tp1006
g76
tp1007
Rp1008
(I1
(I2
tp1009
g845
I00
S'F\x00\x00\x00d\x00\x00\x00'
p1010
tp1011
bsI707
g836
(g837
(I0
tp1012
g76
tp1013
Rp1014
(I1
(I2
tp1015
g845
I00
S'F\x00\x00\x00i\x00\x00\x00'
p1016
tp1017
bsI708
g836
(g837
(I0
tp1018
g76
tp1019
Rp1020
(I1
(I2
tp1021
g845
I00
S'F\x00\x00\x00n\x00\x00\x00'
p1022
tp1023
bsI709
g836
(g837
(I0
tp1024
g76
tp1025
Rp1026
(I1
(I2
tp1027
g845
I00
S'F\x00\x00\x00s\x00\x00\x00'
p1028
tp1029
bsI201
g836
(g837
(I0
tp1030
g76
tp1031
Rp1032
(I1
(I2
tp1033
g845
I00
S'\xc8\x00\x00\x00K\x00\x00\x00'
p1034
tp1035
bsI202
g836
(g837
(I0
tp1036
g76
tp1037
Rp1038
(I1
(I2
tp1039
g845
I00
S'\xc8\x00\x00\x00P\x00\x00\x00'
p1040
tp1041
bsI203
g836
(g837
(I0
tp1042
g76
tp1043
Rp1044
(I1
(I2
tp1045
g845
I00
S'\xc8\x00\x00\x00U\x00\x00\x00'
p1046
tp1047
bsI204
g836
(g837
(I0
tp1048
g76
tp1049
Rp1050
(I1
(I2
tp1051
g845
I00
S'\xc8\x00\x00\x00Z\x00\x00\x00'
p1052
tp1053
bsI205
g836
(g837
(I0
tp1054
g76
tp1055
Rp1056
(I1
(I2
tp1057
g845
I00
S'\xc8\x00\x00\x00_\x00\x00\x00'
p1058
tp1059
bsI206
g836
(g837
(I0
tp1060
g76
tp1061
Rp1062
(I1
(I2
tp1063
g845
I00
S'\xc8\x00\x00\x00d\x00\x00\x00'
p1064
tp1065
bsI207
g836
(g837
(I0
tp1066
g76
tp1067
Rp1068
(I1
(I2
tp1069
g845
I00
S'\xc8\x00\x00\x00i\x00\x00\x00'
p1070
tp1071
bsI601
g836
(g837
(I0
tp1072
g76
tp1073
Rp1074
(I1
(I2
tp1075
g845
I00
S'd\x00\x00\x00K\x00\x00\x00'
p1076
tp1077
bsI602
g836
(g837
(I0
tp1078
g76
tp1079
Rp1080
(I1
(I2
tp1081
g845
I00
S'd\x00\x00\x00P\x00\x00\x00'
p1082
tp1083
bsI603
g836
(g837
(I0
tp1084
g76
tp1085
Rp1086
(I1
(I2
tp1087
g845
I00
S'd\x00\x00\x00U\x00\x00\x00'
p1088
tp1089
bsI604
g836
(g837
(I0
tp1090
g76
tp1091
Rp1092
(I1
(I2
tp1093
g845
I00
S'd\x00\x00\x00Z\x00\x00\x00'
p1094
tp1095
bsI605
g836
(g837
(I0
tp1096
g76
tp1097
Rp1098
(I1
(I2
tp1099
g845
I00
S'd\x00\x00\x00_\x00\x00\x00'
p1100
tp1101
bsI606
g836
(g837
(I0
tp1102
g76
tp1103
Rp1104
(I1
(I2
tp1105
g845
I00
S'd\x00\x00\x00d\x00\x00\x00'
p1106
tp1107
bsI607
g836
(g837
(I0
tp1108
g76
tp1109
Rp1110
(I1
(I2
tp1111
g845
I00
S'd\x00\x00\x00i\x00\x00\x00'
p1112
tp1113
bsI608
g836
(g837
(I0
tp1114
g76
tp1115
Rp1116
(I1
(I2
tp1117
g845
I00
S'd\x00\x00\x00n\x00\x00\x00'
p1118
tp1119
bsI101
g836
(g837
(I0
tp1120
g76
tp1121
Rp1122
(I1
(I2
tp1123
g845
I00
S'\xdc\x00\x00\x00K\x00\x00\x00'
p1124
tp1125
bsI102
g836
(g837
(I0
tp1126
g76
tp1127
Rp1128
(I1
(I2
tp1129
g845
I00
S'\xdc\x00\x00\x00P\x00\x00\x00'
p1130
tp1131
bsI103
g836
(g837
(I0
tp1132
g76
tp1133
Rp1134
(I1
(I2
tp1135
g845
I00
S'\xdc\x00\x00\x00U\x00\x00\x00'
p1136
tp1137
bsI104
g836
(g837
(I0
tp1138
g76
tp1139
Rp1140
(I1
(I2
tp1141
g845
I00
S'\xdc\x00\x00\x00Z\x00\x00\x00'
p1142
tp1143
bsI105
g836
(g837
(I0
tp1144
g76
tp1145
Rp1146
(I1
(I2
tp1147
g845
I00
S'\xdc\x00\x00\x00_\x00\x00\x00'
p1148
tp1149
bsI106
g836
(g837
(I0
tp1150
g76
tp1151
Rp1152
(I1
(I2
tp1153
g845
I00
S'\xdc\x00\x00\x00d\x00\x00\x00'
p1154
tp1155
bsI107
g836
(g837
(I0
tp1156
g76
tp1157
Rp1158
(I1
(I2
tp1159
g845
I00
S'\xdc\x00\x00\x00i\x00\x00\x00'
p1160
tp1161
bsI108
g836
(g837
(I0
tp1162
g76
tp1163
Rp1164
(I1
(I2
tp1165
g845
I00
S'\xdc\x00\x00\x00n\x00\x00\x00'
p1166
tp1167
bsI109
g836
(g837
(I0
tp1168
g76
tp1169
Rp1170
(I1
(I2
tp1171
g845
I00
S'\xdc\x00\x00\x00s\x00\x00\x00'
p1172
tp1173
bsI110
g836
(g837
(I0
tp1174
g76
tp1175
Rp1176
(I1
(I2
tp1177
g845
I00
S'\xdc\x00\x00\x00x\x00\x00\x00'
p1178
tp1179
bsI111
g836
(g837
(I0
tp1180
g76
tp1181
Rp1182
(I1
(I2
tp1183
g845
I00
S'\xdc\x00\x00\x00}\x00\x00\x00'
p1184
tp1185
bsI501
g836
(g837
(I0
tp1186
g76
tp1187
Rp1188
(I1
(I2
tp1189
g845
I00
S'\x82\x00\x00\x00K\x00\x00\x00'
p1190
tp1191
bsI502
g836
(g837
(I0
tp1192
g76
tp1193
Rp1194
(I1
(I2
tp1195
g845
I00
S'\x82\x00\x00\x00P\x00\x00\x00'
p1196
tp1197
bsI503
g836
(g837
(I0
tp1198
g76
tp1199
Rp1200
(I1
(I2
tp1201
g845
I00
S'\x82\x00\x00\x00U\x00\x00\x00'
p1202
tp1203
bsI504
g836
(g837
(I0
tp1204
g76
tp1205
Rp1206
(I1
(I2
tp1207
g845
I00
S'\x82\x00\x00\x00Z\x00\x00\x00'
p1208
tp1209
bsI505
g836
(g837
(I0
tp1210
g76
tp1211
Rp1212
(I1
(I2
tp1213
g845
I00
S'\x82\x00\x00\x00_\x00\x00\x00'
p1214
tp1215
bsI506
g836
(g837
(I0
tp1216
g76
tp1217
Rp1218
(I1
(I2
tp1219
g845
I00
S'\x82\x00\x00\x00d\x00\x00\x00'
p1220
tp1221
bsI507
g836
(g837
(I0
tp1222
g76
tp1223
Rp1224
(I1
(I2
tp1225
g845
I00
S'\x82\x00\x00\x00i\x00\x00\x00'
p1226
tp1227
bsI508
g836
(g837
(I0
tp1228
g76
tp1229
Rp1230
(I1
(I2
tp1231
g845
I00
S'\x82\x00\x00\x00n\x00\x00\x00'
p1232
tp1233
bssS'_hxlist'
p1234
(lp1235
g5
ag6
ag8
ag10
ag12
ag14
ag16
ag18
ag20
ag22
ag24
ag26
ag28
ag29
ag31
ag33
ag35
ag37
ag39
ag41
ag43
ag45
ag47
ag49
ag51
ag53
ag55
ag57
ag59
ag60
ag62
ag64
ag66
ag68
ag70
ag72
ag74
ag76
ag78
ag342
ag340
ag346
ag344
ag350
ag348
ag354
ag352
ag358
ag356
ag322
ag158
ag274
ag284
ag164
ag259
ag318
ag266
ag253
ag251
ag249
ag247
ag257
ag255
ag276
ag278
ag280
ag282
ag302
ag300
ag298
ag296
ag107
ag105
ag103
ag101
ag217
ag219
ag213
ag215
ag225
ag227
ag221
ag223
ag326
ag324
ag330
ag328
ag334
ag332
ag338
ag336
ag320
ag142
ag144
ag245
ag235
ag140
ag310
ag308
ag306
ag304
ag316
ag314
ag312
asS'_pos'
p1236
(dp1237
I109
g1170
sg5
g836
(g837
(I0
tp1238
g76
tp1239
Rp1240
(I1
(I2
tp1241
g845
I00
S'\x04\x01\x00\x00\x14\x00\x00\x00'
p1242
tp1243
bsg8
g836
(g837
(I0
tp1244
g76
tp1245
Rp1246
(I1
(I2
tp1247
g845
I00
S'\xe6\x00\x00\x00\x14\x00\x00\x00'
p1248
tp1249
bsg6
g836
(g837
(I0
tp1250
g76
tp1251
Rp1252
(I1
(I2
tp1253
g845
I00
S'\xf0\x00\x00\x00\x14\x00\x00\x00'
p1254
tp1255
bsg12
g836
(g837
(I0
tp1256
g76
tp1257
Rp1258
(I1
(I2
tp1259
g845
I00
S'\xb4\x00\x00\x00\x14\x00\x00\x00'
p1260
tp1261
bsg10
g836
(g837
(I0
tp1262
g76
tp1263
Rp1264
(I1
(I2
tp1265
g845
I00
S'\xdc\x00\x00\x00\x14\x00\x00\x00'
p1266
tp1267
bsg16
g836
(g837
(I0
tp1268
g76
tp1269
Rp1270
(I1
(I2
tp1271
g845
I00
S'\x8c\x00\x00\x00\x14\x00\x00\x00'
p1272
tp1273
bsg14
g836
(g837
(I0
tp1274
g76
tp1275
Rp1276
(I1
(I2
tp1277
g845
I00
S'\xa0\x00\x00\x00\x14\x00\x00\x00'
p1278
tp1279
bsg20
g836
(g837
(I0
tp1280
g76
tp1281
Rp1282
(I1
(I2
tp1283
g845
I00
S'(\x00\x00\x00\x14\x00\x00\x00'
p1284
tp1285
bsg18
g836
(g837
(I0
tp1286
g76
tp1287
Rp1288
(I1
(I2
tp1289
g845
I00
S'<\x00\x00\x00\x14\x00\x00\x00'
p1290
tp1291
bsg101
g836
(g837
(I0
tp1292
g76
tp1293
Rp1294
(I1
(I2
tp1295
g845
I00
S'\x8c\x00\x00\x00n\x00\x00\x00'
p1296
tp1297
bsg103
g836
(g837
(I0
tp1298
g76
tp1299
Rp1300
(I1
(I2
tp1301
g845
I00
S'\x8c\x00\x00\x00i\x00\x00\x00'
p1302
tp1303
bsg105
g836
(g837
(I0
tp1304
g76
tp1305
Rp1306
(I1
(I2
tp1307
g845
I00
S'\x8c\x00\x00\x00d\x00\x00\x00'
p1308
tp1309
bsg107
g836
(g837
(I0
tp1310
g76
tp1311
Rp1312
(I1
(I2
tp1313
g845
I00
S'\x8c\x00\x00\x00_\x00\x00\x00'
p1314
tp1315
bsg109
g836
(g837
(I0
tp1316
g76
tp1317
Rp1318
(I1
(I2
tp1319
g845
I00
S'(\x00\x00\x00(\x00\x00\x00'
p1320
tp1321
bsg111
g836
(g837
(I0
tp1322
g76
tp1323
Rp1324
(I1
(I2
tp1325
g845
I00
S'\x14\x00\x00\x00(\x00\x00\x00'
p1326
tp1327
bsg113
g836
(g837
(I0
tp1328
g76
tp1329
Rp1330
(I1
(I2
tp1331
g845
I00
S's\x00\x00\x00(\x00\x00\x00'
p1332
tp1333
bsg115
g836
(g837
(I0
tp1334
g76
tp1335
Rp1336
(I1
(I2
tp1337
g845
I00
S'<\x00\x00\x00(\x00\x00\x00'
p1338
tp1339
bsI601
g1074
sI602
g1080
sI603
g1086
sI604
g1092
sI605
g1098
sI606
g1104
sI607
g1110
sI608
g1116
sI101
g1122
sI102
g1128
sI103
g1134
sI104
g1140
sg66
g836
(g837
(I0
tp1340
g76
tp1341
Rp1342
(I1
(I2
tp1343
g845
I00
S'n\x00\x00\x00F\x00\x00\x00'
p1344
tp1345
bsI106
g1152
sI107
g1158
sI108
g1164
sg59
g836
(g837
(I0
tp1346
g76
tp1347
Rp1348
(I1
(I2
tp1349
g845
I00
S'\x14\x00\x00\x00F\x00\x00\x00'
p1350
tp1351
bsI110
g1176
sI111
g1182
sg35
g836
(g837
(I0
tp1352
g76
tp1353
Rp1354
(I1
(I2
tp1355
g845
I00
S'n\x00\x00\x00<\x00\x00\x00'
p1356
tp1357
bsI105
g1146
sg43
g836
(g837
(I0
tp1358
g76
tp1359
Rp1360
(I1
(I2
tp1361
g845
I00
S'\xb4\x00\x00\x00<\x00\x00\x00'
p1362
tp1363
bsg140
g836
(g837
(I0
tp1364
g76
tp1365
Rp1366
(I1
(I2
tp1367
g845
I00
S'<\x00\x00\x00_\x00\x00\x00'
p1368
tp1369
bsg142
g836
(g837
(I0
tp1370
g76
tp1371
Rp1372
(I1
(I2
tp1373
g845
I00
S'<\x00\x00\x00K\x00\x00\x00'
p1374
tp1375
bsg144
g836
(g837
(I0
tp1376
g76
tp1377
Rp1378
(I1
(I2
tp1379
g845
I00
S'<\x00\x00\x00P\x00\x00\x00'
p1380
tp1381
bsg146
g836
(g837
(I0
tp1382
g76
tp1383
Rp1384
(I1
(I2
tp1385
g845
I00
S'\x00\x00\x00\x00\x00\x00\x00\x00'
p1386
tp1387
bsg148
g836
(g837
(I0
tp1388
g76
tp1389
Rp1390
(I1
(I2
tp1391
g845
I00
S'\n\x00\x00\x00\x00\x00\x00\x00'
p1392
tp1393
bsg150
g836
(g837
(I0
tp1394
g76
tp1395
Rp1396
(I1
(I2
tp1397
g845
I00
S'\xa0\x00\x00\x00\x00\x00\x00\x00'
p1398
tp1399
bsg152
g836
(g837
(I0
tp1400
g76
tp1401
Rp1402
(I1
(I2
tp1403
g845
I00
S'\xaa\x00\x00\x00\x00\x00\x00\x00'
p1404
tp1405
bsg154
g836
(g837
(I0
tp1406
g76
tp1407
Rp1408
(I1
(I2
tp1409
g845
I00
S'\xc8\x00\x00\x00\x00\x00\x00\x00'
p1410
tp1411
bsg156
g836
(g837
(I0
tp1412
g76
tp1413
Rp1414
(I1
(I2
tp1415
g845
I00
S'\xdc\x00\x00\x00\x00\x00\x00\x00'
p1416
tp1417
bsg271
g836
(g837
(I0
tp1418
g76
tp1419
Rp1420
(I1
(I2
tp1421
g845
I00
S'\xe6\x00\x00\x00\x00\x00\x00\x00'
p1422
tp1423
bsg160
g836
(g837
(I0
tp1424
g76
tp1425
Rp1426
(I1
(I2
tp1427
g845
I00
S'\xf0\x00\x00\x00\x00\x00\x00\x00'
p1428
tp1429
bsg162
g836
(g837
(I0
tp1430
g76
tp1431
Rp1432
(I1
(I2
tp1433
g845
I00
S'\xfa\x00\x00\x00\x00\x00\x00\x00'
p1434
tp1435
bsg164
g836
(g837
(I0
tp1436
g76
tp1437
Rp1438
(I1
(I2
tp1439
g845
I00
S'\xd2\x00\x00\x00Z\x00\x00\x00'
p1440
tp1441
bsg166
g836
(g837
(I0
tp1442
g76
tp1443
Rp1444
(I1
(I2
tp1445
g845
I00
S'(\x00\x00\x00\x00\x00\x00\x00'
p1446
tp1447
bsg168
g836
(g837
(I0
tp1448
g76
tp1449
Rp1450
(I1
(I2
tp1451
g845
I00
S'\x8c\x00\x00\x00\x00\x00\x00\x00'
p1452
tp1453
bsI701
g978
sI702
g984
sI703
g990
sI704
g996
sI705
g1002
sI706
g1008
sI707
g1014
sI708
g1020
sI709
g1026
sI201
g1032
sI202
g1038
sI203
g1044
sI204
g1050
sI205
g1056
sI206
g1062
sI207
g1068
sg24
g836
(g837
(I0
tp1454
g76
tp1455
Rp1456
(I1
(I2
tp1457
g845
I00
S'\n\x00\x00\x00\x14\x00\x00\x00'
p1458
tp1459
bsg22
g836
(g837
(I0
tp1460
g76
tp1461
Rp1462
(I1
(I2
tp1463
g845
I00
S'\x14\x00\x00\x00\x14\x00\x00\x00'
p1464
tp1465
bsg26
g836
(g837
(I0
tp1466
g76
tp1467
Rp1468
(I1
(I2
tp1469
g845
I00
S'\x00\x00\x00\x00\x14\x00\x00\x00'
p1470
tp1471
bsg55
g836
(g837
(I0
tp1472
g76
tp1473
Rp1474
(I1
(I2
tp1475
g845
I00
S'\xff\x00\x00\x00<\x00\x00\x00'
p1476
tp1477
bsg57
g836
(g837
(I0
tp1478
g76
tp1479
Rp1480
(I1
(I2
tp1481
g845
I00
S'\x04\x01\x00\x00<\x00\x00\x00'
p1482
tp1483
bsg49
g836
(g837
(I0
tp1484
g76
tp1485
Rp1486
(I1
(I2
tp1487
g845
I00
S'\xe6\x00\x00\x00<\x00\x00\x00'
p1488
tp1489
bsg51
g836
(g837
(I0
tp1490
g76
tp1491
Rp1492
(I1
(I2
tp1493
g845
I00
S'\xeb\x00\x00\x00<\x00\x00\x00'
p1494
tp1495
bsg53
g836
(g837
(I0
tp1496
g76
tp1497
Rp1498
(I1
(I2
tp1499
g845
I00
S'\xf5\x00\x00\x00<\x00\x00\x00'
p1500
tp1501
bsg194
g836
(g837
(I0
tp1502
g76
tp1503
Rp1504
(I1
(I2
tp1505
g845
I00
S'\xe6\x00\x00\x00(\x00\x00\x00'
p1506
tp1507
bsg196
g836
(g837
(I0
tp1508
g76
tp1509
Rp1510
(I1
(I2
tp1511
g845
I00
S'\xdc\x00\x00\x00(\x00\x00\x00'
p1512
tp1513
bsg243
g836
(g837
(I0
tp1514
g76
tp1515
Rp1516
(I1
(I2
tp1517
g845
I00
S'\xb4\x00\x00\x00(\x00\x00\x00'
p1518
tp1519
bsg199
g836
(g837
(I0
tp1520
g76
tp1521
Rp1522
(I1
(I2
tp1523
g845
I00
S'\xaa\x00\x00\x00(\x00\x00\x00'
p1524
tp1525
bsg201
g836
(g837
(I0
tp1526
g76
tp1527
Rp1528
(I1
(I2
tp1529
g845
I00
S'\x04\x01\x00\x00(\x00\x00\x00'
p1530
tp1531
bsg262
g836
(g837
(I0
tp1532
g76
tp1533
Rp1534
(I1
(I2
tp1535
g845
I00
S'\xff\x00\x00\x00(\x00\x00\x00'
p1536
tp1537
bsg204
g836
(g837
(I0
tp1538
g76
tp1539
Rp1540
(I1
(I2
tp1541
g845
I00
S'\xeb\x00\x00\x00(\x00\x00\x00'
p1542
tp1543
bsg60
g836
(g837
(I0
tp1544
g76
tp1545
Rp1546
(I1
(I2
tp1547
g845
I00
S'(\x00\x00\x00F\x00\x00\x00'
p1548
tp1549
bsg207
g836
(g837
(I0
tp1550
g76
tp1551
Rp1552
(I1
(I2
tp1553
g845
I00
S'\xa5\x00\x00\x00(\x00\x00\x00'
p1554
tp1555
bsg209
g836
(g837
(I0
tp1556
g76
tp1557
Rp1558
(I1
(I2
tp1559
g845
I00
S'\x8c\x00\x00\x00(\x00\x00\x00'
p1560
tp1561
bsg33
g836
(g837
(I0
tp1562
g76
tp1563
Rp1564
(I1
(I2
tp1565
g845
I00
S'P\x00\x00\x00<\x00\x00\x00'
p1566
tp1567
bsg41
g836
(g837
(I0
tp1568
g76
tp1569
Rp1570
(I1
(I2
tp1571
g845
I00
S'\xaa\x00\x00\x00<\x00\x00\x00'
p1572
tp1573
bsg213
g836
(g837
(I0
tp1574
g76
tp1575
Rp1576
(I1
(I2
tp1577
g845
I00
S'n\x00\x00\x00U\x00\x00\x00'
p1578
tp1579
bsg215
g836
(g837
(I0
tp1580
g76
tp1581
Rp1582
(I1
(I2
tp1583
g845
I00
S'n\x00\x00\x00Z\x00\x00\x00'
p1584
tp1585
bsg217
g836
(g837
(I0
tp1586
g76
tp1587
Rp1588
(I1
(I2
tp1589
g845
I00
S'n\x00\x00\x00K\x00\x00\x00'
p1590
tp1591
bsg219
g836
(g837
(I0
tp1592
g76
tp1593
Rp1594
(I1
(I2
tp1595
g845
I00
S'n\x00\x00\x00P\x00\x00\x00'
p1596
tp1597
bsg221
g836
(g837
(I0
tp1598
g76
tp1599
Rp1600
(I1
(I2
tp1601
g845
I00
S'n\x00\x00\x00i\x00\x00\x00'
p1602
tp1603
bsg223
g836
(g837
(I0
tp1604
g76
tp1605
Rp1606
(I1
(I2
tp1607
g845
I00
S'n\x00\x00\x00n\x00\x00\x00'
p1608
tp1609
bsg225
g836
(g837
(I0
tp1610
g76
tp1611
Rp1612
(I1
(I2
tp1613
g845
I00
S'n\x00\x00\x00_\x00\x00\x00'
p1614
tp1615
bsg227
g836
(g837
(I0
tp1616
g76
tp1617
Rp1618
(I1
(I2
tp1619
g845
I00
S'n\x00\x00\x00d\x00\x00\x00'
p1620
tp1621
bsI901
g840
sI801
g912
sI802
g918
sI803
g924
sI804
g930
sI805
g936
sg235
g836
(g837
(I0
tp1622
g76
tp1623
Rp1624
(I1
(I2
tp1625
g845
I00
S'<\x00\x00\x00Z\x00\x00\x00'
p1626
tp1627
bsI301
g942
sI302
g948
sI303
g954
sI304
g960
sI305
g966
sI306
g972
sg74
g836
(g837
(I0
tp1628
g76
tp1629
Rp1630
(I1
(I2
tp1631
g845
I00
S'\xb4\x00\x00\x00F\x00\x00\x00'
p1632
tp1633
bsg245
g836
(g837
(I0
tp1634
g76
tp1635
Rp1636
(I1
(I2
tp1637
g845
I00
S'<\x00\x00\x00U\x00\x00\x00'
p1638
tp1639
bsg247
g836
(g837
(I0
tp1640
g76
tp1641
Rp1642
(I1
(I2
tp1643
g845
I00
S'\xb4\x00\x00\x00Z\x00\x00\x00'
p1644
tp1645
bsg249
g836
(g837
(I0
tp1646
g76
tp1647
Rp1648
(I1
(I2
tp1649
g845
I00
S'\xb4\x00\x00\x00U\x00\x00\x00'
p1650
tp1651
bsg251
g836
(g837
(I0
tp1652
g76
tp1653
Rp1654
(I1
(I2
tp1655
g845
I00
S'\xb4\x00\x00\x00P\x00\x00\x00'
p1656
tp1657
bsg253
g836
(g837
(I0
tp1658
g76
tp1659
Rp1660
(I1
(I2
tp1661
g845
I00
S'\xb4\x00\x00\x00K\x00\x00\x00'
p1662
tp1663
bsg255
g836
(g837
(I0
tp1664
g76
tp1665
Rp1666
(I1
(I2
tp1667
g845
I00
S'\xb4\x00\x00\x00d\x00\x00\x00'
p1668
tp1669
bsg257
g836
(g837
(I0
tp1670
g76
tp1671
Rp1672
(I1
(I2
tp1673
g845
I00
S'\xb4\x00\x00\x00_\x00\x00\x00'
p1674
tp1675
bsg259
g836
(g837
(I0
tp1676
g76
tp1677
Rp1678
(I1
(I2
tp1679
g845
I00
S'\xd2\x00\x00\x00_\x00\x00\x00'
p1680
tp1681
bsg76
g836
(g837
(I0
tp1682
g76
tp1683
Rp1684
(I1
(I2
tp1685
g845
I00
S'\xd2\x00\x00\x00F\x00\x00\x00'
p1686
tp1687
bsg68
g836
(g837
(I0
tp1688
g76
tp1689
Rp1690
(I1
(I2
tp1691
g845
I00
S'\x8c\x00\x00\x00F\x00\x00\x00'
p1692
tp1693
bsg70
g836
(g837
(I0
tp1694
g76
tp1695
Rp1696
(I1
(I2
tp1697
g845
I00
S'\xa5\x00\x00\x00F\x00\x00\x00'
p1698
tp1699
bsg62
g836
(g837
(I0
tp1700
g76
tp1701
Rp1702
(I1
(I2
tp1703
g845
I00
S'<\x00\x00\x00F\x00\x00\x00'
p1704
tp1705
bsg266
g836
(g837
(I0
tp1706
g76
tp1707
Rp1708
(I1
(I2
tp1709
g845
I00
S'\xd2\x00\x00\x00i\x00\x00\x00'
p1710
tp1711
bsg29
g836
(g837
(I0
tp1712
g76
tp1713
Rp1714
(I1
(I2
tp1715
g845
I00
S'(\x00\x00\x00<\x00\x00\x00'
p1716
tp1717
bsg31
g836
(g837
(I0
tp1718
g76
tp1719
Rp1720
(I1
(I2
tp1721
g845
I00
S'<\x00\x00\x00<\x00\x00\x00'
p1722
tp1723
bsg39
g836
(g837
(I0
tp1724
g76
tp1725
Rp1726
(I1
(I2
tp1727
g845
I00
S'\xa5\x00\x00\x00<\x00\x00\x00'
p1728
tp1729
bsg158
g836
(g837
(I0
tp1730
g76
tp1731
Rp1732
(I1
(I2
tp1733
g845
I00
S'\xd2\x00\x00\x00K\x00\x00\x00'
p1734
tp1735
bsg47
g836
(g837
(I0
tp1736
g76
tp1737
Rp1738
(I1
(I2
tp1739
g845
I00
S'\xdc\x00\x00\x00<\x00\x00\x00'
p1740
tp1741
bsg274
g836
(g837
(I0
tp1742
g76
tp1743
Rp1744
(I1
(I2
tp1745
g845
I00
S'\xd2\x00\x00\x00P\x00\x00\x00'
p1746
tp1747
bsg276
g836
(g837
(I0
tp1748
g76
tp1749
Rp1750
(I1
(I2
tp1751
g845
I00
S'\xa5\x00\x00\x00K\x00\x00\x00'
p1752
tp1753
bsg278
g836
(g837
(I0
tp1754
g76
tp1755
Rp1756
(I1
(I2
tp1757
g845
I00
S'\xa5\x00\x00\x00P\x00\x00\x00'
p1758
tp1759
bsg280
g836
(g837
(I0
tp1760
g76
tp1761
Rp1762
(I1
(I2
tp1763
g845
I00
S'\xa5\x00\x00\x00U\x00\x00\x00'
p1764
tp1765
bsg282
g836
(g837
(I0
tp1766
g76
tp1767
Rp1768
(I1
(I2
tp1769
g845
I00
S'\xa5\x00\x00\x00Z\x00\x00\x00'
p1770
tp1771
bsg284
g836
(g837
(I0
tp1772
g76
tp1773
Rp1774
(I1
(I2
tp1775
g845
I00
S'\xd2\x00\x00\x00U\x00\x00\x00'
p1776
tp1777
bsI902
g852
sI903
g858
sI904
g864
sI905
g870
sI906
g876
sI907
g882
sI401
g888
sI402
g894
sI403
g900
sI404
g906
sg296
g836
(g837
(I0
tp1778
g76
tp1779
Rp1780
(I1
(I2
tp1781
g845
I00
S'\x8c\x00\x00\x00Z\x00\x00\x00'
p1782
tp1783
bsg298
g836
(g837
(I0
tp1784
g76
tp1785
Rp1786
(I1
(I2
tp1787
g845
I00
S'\x8c\x00\x00\x00U\x00\x00\x00'
p1788
tp1789
bsg300
g836
(g837
(I0
tp1790
g76
tp1791
Rp1792
(I1
(I2
tp1793
g845
I00
S'\x8c\x00\x00\x00P\x00\x00\x00'
p1794
tp1795
bsg302
g836
(g837
(I0
tp1796
g76
tp1797
Rp1798
(I1
(I2
tp1799
g845
I00
S'\x8c\x00\x00\x00K\x00\x00\x00'
p1800
tp1801
bsg304
g836
(g837
(I0
tp1802
g76
tp1803
Rp1804
(I1
(I2
tp1805
g845
I00
S'(\x00\x00\x00Z\x00\x00\x00'
p1806
tp1807
bsg306
g836
(g837
(I0
tp1808
g76
tp1809
Rp1810
(I1
(I2
tp1811
g845
I00
S'(\x00\x00\x00U\x00\x00\x00'
p1812
tp1813
bsg308
g836
(g837
(I0
tp1814
g76
tp1815
Rp1816
(I1
(I2
tp1817
g845
I00
S'(\x00\x00\x00P\x00\x00\x00'
p1818
tp1819
bsg310
g836
(g837
(I0
tp1820
g76
tp1821
Rp1822
(I1
(I2
tp1823
g845
I00
S'(\x00\x00\x00K\x00\x00\x00'
p1824
tp1825
bsg312
g836
(g837
(I0
tp1826
g76
tp1827
Rp1828
(I1
(I2
tp1829
g845
I00
S'(\x00\x00\x00i\x00\x00\x00'
p1830
tp1831
bsg314
g836
(g837
(I0
tp1832
g76
tp1833
Rp1834
(I1
(I2
tp1835
g845
I00
S'(\x00\x00\x00d\x00\x00\x00'
p1836
tp1837
bsg316
g836
(g837
(I0
tp1838
g76
tp1839
Rp1840
(I1
(I2
tp1841
g845
I00
S'(\x00\x00\x00_\x00\x00\x00'
p1842
tp1843
bsg318
g836
(g837
(I0
tp1844
g76
tp1845
Rp1846
(I1
(I2
tp1847
g845
I00
S'\xd2\x00\x00\x00d\x00\x00\x00'
p1848
tp1849
bsI504
g1206
sg320
g836
(g837
(I0
tp1850
g76
tp1851
Rp1852
(I1
(I2
tp1853
g845
I00
S'P\x00\x00\x00s\x00\x00\x00'
p1854
tp1855
bsg322
g836
(g837
(I0
tp1856
g76
tp1857
Rp1858
(I1
(I2
tp1859
g845
I00
S'\xe6\x00\x00\x00}\x00\x00\x00'
p1860
tp1861
bsg324
g836
(g837
(I0
tp1862
g76
tp1863
Rp1864
(I1
(I2
tp1865
g845
I00
S'P\x00\x00\x00P\x00\x00\x00'
p1866
tp1867
bsg326
g836
(g837
(I0
tp1868
g76
tp1869
Rp1870
(I1
(I2
tp1871
g845
I00
S'P\x00\x00\x00K\x00\x00\x00'
p1872
tp1873
bsg328
g836
(g837
(I0
tp1874
g76
tp1875
Rp1876
(I1
(I2
tp1877
g845
I00
S'P\x00\x00\x00Z\x00\x00\x00'
p1878
tp1879
bsg330
g836
(g837
(I0
tp1880
g76
tp1881
Rp1882
(I1
(I2
tp1883
g845
I00
S'P\x00\x00\x00U\x00\x00\x00'
p1884
tp1885
bsg332
g836
(g837
(I0
tp1886
g76
tp1887
Rp1888
(I1
(I2
tp1889
g845
I00
S'P\x00\x00\x00d\x00\x00\x00'
p1890
tp1891
bsg334
g836
(g837
(I0
tp1892
g76
tp1893
Rp1894
(I1
(I2
tp1895
g845
I00
S'P\x00\x00\x00_\x00\x00\x00'
p1896
tp1897
bsg336
g836
(g837
(I0
tp1898
g76
tp1899
Rp1900
(I1
(I2
tp1901
g845
I00
S'P\x00\x00\x00n\x00\x00\x00'
p1902
tp1903
bsg338
g836
(g837
(I0
tp1904
g76
tp1905
Rp1906
(I1
(I2
tp1907
g845
I00
S'P\x00\x00\x00i\x00\x00\x00'
p1908
tp1909
bsg340
g836
(g837
(I0
tp1910
g76
tp1911
Rp1912
(I1
(I2
tp1913
g845
I00
S'\xe6\x00\x00\x00P\x00\x00\x00'
p1914
tp1915
bsg342
g836
(g837
(I0
tp1916
g76
tp1917
Rp1918
(I1
(I2
tp1919
g845
I00
S'\xe6\x00\x00\x00K\x00\x00\x00'
p1920
tp1921
bsg344
g836
(g837
(I0
tp1922
g76
tp1923
Rp1924
(I1
(I2
tp1925
g845
I00
S'\xe6\x00\x00\x00Z\x00\x00\x00'
p1926
tp1927
bsg346
g836
(g837
(I0
tp1928
g76
tp1929
Rp1930
(I1
(I2
tp1931
g845
I00
S'\xe6\x00\x00\x00U\x00\x00\x00'
p1932
tp1933
bsg348
g836
(g837
(I0
tp1934
g76
tp1935
Rp1936
(I1
(I2
tp1937
g845
I00
S'\xe6\x00\x00\x00d\x00\x00\x00'
p1938
tp1939
bsg350
g836
(g837
(I0
tp1940
g76
tp1941
Rp1942
(I1
(I2
tp1943
g845
I00
S'\xe6\x00\x00\x00_\x00\x00\x00'
p1944
tp1945
bsg352
g836
(g837
(I0
tp1946
g76
tp1947
Rp1948
(I1
(I2
tp1949
g845
I00
S'\xe6\x00\x00\x00n\x00\x00\x00'
p1950
tp1951
bsg354
g836
(g837
(I0
tp1952
g76
tp1953
Rp1954
(I1
(I2
tp1955
g845
I00
S'\xe6\x00\x00\x00i\x00\x00\x00'
p1956
tp1957
bsg356
g836
(g837
(I0
tp1958
g76
tp1959
Rp1960
(I1
(I2
tp1961
g845
I00
S'\xe6\x00\x00\x00x\x00\x00\x00'
p1962
tp1963
bsg358
g836
(g837
(I0
tp1964
g76
tp1965
Rp1966
(I1
(I2
tp1967
g845
I00
S'\xe6\x00\x00\x00s\x00\x00\x00'
p1968
tp1969
bsg78
g836
(g837
(I0
tp1970
g76
tp1971
Rp1972
(I1
(I2
tp1973
g845
I00
S'\xe6\x00\x00\x00F\x00\x00\x00'
p1974
tp1975
bsg72
g836
(g837
(I0
tp1976
g76
tp1977
Rp1978
(I1
(I2
tp1979
g845
I00
S'\xaa\x00\x00\x00F\x00\x00\x00'
p1980
tp1981
bsg64
g836
(g837
(I0
tp1982
g76
tp1983
Rp1984
(I1
(I2
tp1985
g845
I00
S'P\x00\x00\x00F\x00\x00\x00'
p1986
tp1987
bsg28
g836
(g837
(I0
tp1988
g76
tp1989
Rp1990
(I1
(I2
tp1991
g845
I00
S'\x14\x00\x00\x00<\x00\x00\x00'
p1992
tp1993
bsg37
g836
(g837
(I0
tp1994
g76
tp1995
Rp1996
(I1
(I2
tp1997
g845
I00
S'\x8c\x00\x00\x00<\x00\x00\x00'
p1998
tp1999
bsI501
g1188
sI502
g1194
sI503
g1200
sg45
g836
(g837
(I0
tp2000
g76
tp2001
Rp2002
(I1
(I2
tp2003
g845
I00
S'\xd2\x00\x00\x00<\x00\x00\x00'
p2004
tp2005
bsI505
g1212
sI506
g1218
sI507
g1224
sI508
g1230
ssS'_pdlist'
p2006
(lp2007
g162
ag160
ag271
ag156
ag154
ag152
ag150
ag168
ag166
ag148
ag146
ag201
ag262
ag204
ag194
ag196
ag243
ag199
ag207
ag209
ag113
ag115
ag109
ag111
asS'_hxpos'
p2008
(dp2009
g213
g1576
sg215
g1582
sg217
g1588
sg219
g1594
sg221
g1600
sg223
g1606
sg225
g1612
sg227
g1618
sg356
g1960
sg358
g1966
sg5
g1240
sg8
g1246
sg6
g1252
sg12
g1258
sg10
g1264
sg16
g1270
sg14
g1276
sg20
g1282
sg18
g1288
sg26
g1468
sg101
g1294
sg103
g1300
sg105
g1306
sg107
g1312
sg296
g1780
sg298
g1786
sg300
g1792
sg302
g1798
sg247
g1642
sg249
g1648
sg251
g1654
sg253
g1660
sg255
g1666
sg257
g1672
sg76
g1684
sg70
g1696
sg66
g1342
sg62
g1702
sg59
g1348
sg29
g1714
sg31
g1720
sg35
g1354
sg39
g1726
sg43
g1360
sg47
g1738
sg276
g1750
sg278
g1756
sg280
g1762
sg282
g1768
sg140
g1366
sg142
g1372
sg144
g1378
sg245
g1636
sg235
g1624
sg259
g1678
sg318
g1846
sg266
g1708
sg158
g1732
sg274
g1744
sg284
g1774
sg164
g1438
sg304
g1804
sg306
g1810
sg308
g1816
sg310
g1822
sg312
g1828
sg314
g1834
sg316
g1840
sg320
g1852
sg322
g1858
sg324
g1864
sg326
g1870
sg328
g1876
sg330
g1882
sg332
g1888
sg334
g1894
sg336
g1900
sg338
g1906
sg340
g1912
sg342
g1918
sg344
g1924
sg346
g1930
sg348
g1936
sg350
g1942
sg352
g1948
sg354
g1954
sg55
g1474
sg57
g1480
sg49
g1486
sg51
g1492
sg53
g1498
sg78
g1972
sg74
g1630
sg72
g1978
sg68
g1690
sg64
g1984
sg60
g1546
sg28
g1990
sg33
g1564
sg37
g1996
sg41
g1570
sg45
g2002
sg24
g1456
sg22
g1462
ssS'_pdpos'
p2010
(dp2011
g109
g1318
sg111
g1324
sg113
g1330
sg115
g1336
sg146
g1384
sg148
g1390
sg150
g1396
sg152
g1402
sg154
g1408
sg156
g1414
sg271
g1420
sg160
g1426
sg162
g1432
sg166
g1444
sg168
g1450
sg194
g1504
sg196
g1510
sg243
g1516
sg199
g1522
sg201
g1528
sg262
g1534
sg204
g1540
sg207
g1552
sg209
g1558
ssS'_ledges'
p2012
(lp2013
(lp2014
g146
ag26
aa(lp2015
g148
ag24
aa(lp2016
g166
ag20
aa(lp2017
g168
ag18
aa(lp2018
g168
ag16
aa(lp2019
g150
ag16
aa(lp2020
g150
ag14
aa(lp2021
g152
ag12
aa(lp2022
g154
ag10
aa(lp2023
g156
ag10
aa(lp2024
g271
ag8
aa(lp2025
g160
ag6
aa(lp2026
g162
ag5
aa(lp2027
g5
ag201
aa(lp2028
g6
ag194
aa(lp2029
g8
ag194
aa(lp2030
g8
ag196
aa(lp2031
g10
ag196
aa(lp2032
g10
ag243
aa(lp2033
g12
ag243
aa(lp2034
g14
ag199
aa(lp2035
g16
ag207
aa(lp2036
g16
ag209
aa(lp2037
g18
ag113
aa(lp2038
g18
ag115
aa(lp2039
g22
ag111
aa(lp2040
g201
ag57
aa(lp2041
g262
ag55
aa(lp2042
g204
ag53
aa(lp2043
g204
ag51
aa(lp2044
g194
ag49
aa(lp2045
g196
ag47
aa(lp2046
g243
ag45
aa(lp2047
g207
ag39
aa(lp2048
g209
ag37
aa(lp2049
g113
ag33
aa(lp2050
g115
ag31
aa(lp2051
g109
ag29
aa(lp2052
g111
ag28
aa(lp2053
g49
ag78
aa(lp2054
g45
ag76
aa(lp2055
g43
ag74
aa(lp2056
g41
ag72
aa(lp2057
g39
ag70
aa(lp2058
g37
ag68
aa(lp2059
g35
ag66
aa(lp2060
g33
ag64
aa(lp2061
g31
ag62
aa(lp2062
g29
ag60
aa(lp2063
g28
ag59
aa(lp2064
g78
ag342
aa(lp2065
g342
ag340
aa(lp2066
g340
ag346
aa(lp2067
g346
ag344
aa(lp2068
g344
ag350
aa(lp2069
g350
ag348
aa(lp2070
g348
ag354
aa(lp2071
g354
ag352
aa(lp2072
g352
ag358
aa(lp2073
g358
ag356
aa(lp2074
g356
ag322
aa(lp2075
g342
aI101
aa(lp2076
g340
aI102
aa(lp2077
g346
aI103
aa(lp2078
g344
aI104
aa(lp2079
g350
aI105
aa(lp2080
g348
aI106
aa(lp2081
g354
aI107
aa(lp2082
g352
aI108
aa(lp2083
g358
aI109
aa(lp2084
g356
aI110
aa(lp2085
g322
aI111
aa(lp2086
g76
ag158
aa(lp2087
g158
ag274
aa(lp2088
g274
ag284
aa(lp2089
g284
ag164
aa(lp2090
g164
ag259
aa(lp2091
g259
ag318
aa(lp2092
g318
ag266
aa(lp2093
g158
aI201
aa(lp2094
g274
aI202
aa(lp2095
g284
aI203
aa(lp2096
g164
aI204
aa(lp2097
g259
aI205
aa(lp2098
g318
aI206
aa(lp2099
g266
aI207
aa(lp2100
g74
ag253
aa(lp2101
g253
ag251
aa(lp2102
g251
ag249
aa(lp2103
g249
ag247
aa(lp2104
g247
ag257
aa(lp2105
g257
ag255
aa(lp2106
g253
aI301
aa(lp2107
g251
aI302
aa(lp2108
g249
aI303
aa(lp2109
g247
aI304
aa(lp2110
g257
aI305
aa(lp2111
g255
aI306
aa(lp2112
g70
ag276
aa(lp2113
g276
ag278
aa(lp2114
g278
ag280
aa(lp2115
g280
ag282
aa(lp2116
g276
aI401
aa(lp2117
g278
aI402
aa(lp2118
g280
aI403
aa(lp2119
g282
aI404
aa(lp2120
g68
ag302
aa(lp2121
g302
ag300
aa(lp2122
g300
ag298
aa(lp2123
g298
ag296
aa(lp2124
g296
ag107
aa(lp2125
g107
ag105
aa(lp2126
g105
ag103
aa(lp2127
g103
ag101
aa(lp2128
g302
aI501
aa(lp2129
g300
aI502
aa(lp2130
g298
aI503
aa(lp2131
g296
aI504
aa(lp2132
g107
aI505
aa(lp2133
g105
aI506
aa(lp2134
g103
aI507
aa(lp2135
g101
aI508
aa(lp2136
g66
ag217
aa(lp2137
g217
ag219
aa(lp2138
g219
ag213
aa(lp2139
g213
ag215
aa(lp2140
g215
ag225
aa(lp2141
g225
ag227
aa(lp2142
g227
ag221
aa(lp2143
g221
ag223
aa(lp2144
g217
aI601
aa(lp2145
g219
aI602
aa(lp2146
g213
aI603
aa(lp2147
g215
aI604
aa(lp2148
g225
aI605
aa(lp2149
g227
aI606
aa(lp2150
g221
aI607
aa(lp2151
g223
aI608
aa(lp2152
g64
ag326
aa(lp2153
g326
ag324
aa(lp2154
g324
ag330
aa(lp2155
g330
ag328
aa(lp2156
g328
ag334
aa(lp2157
g334
ag332
aa(lp2158
g332
ag338
aa(lp2159
g338
ag336
aa(lp2160
g336
ag320
aa(lp2161
g326
aI701
aa(lp2162
g324
aI702
aa(lp2163
g330
aI703
aa(lp2164
g328
aI704
aa(lp2165
g334
aI705
aa(lp2166
g332
aI706
aa(lp2167
g338
aI707
aa(lp2168
g336
aI708
aa(lp2169
g320
aI709
aa(lp2170
g62
ag142
aa(lp2171
g142
ag144
aa(lp2172
g144
ag245
aa(lp2173
g245
ag235
aa(lp2174
g235
ag140
aa(lp2175
g142
aI801
aa(lp2176
g144
aI802
aa(lp2177
g245
aI803
aa(lp2178
g235
aI804
aa(lp2179
g140
aI805
aa(lp2180
g60
ag310
aa(lp2181
g310
ag308
aa(lp2182
g308
ag306
aa(lp2183
g306
ag304
aa(lp2184
g304
ag316
aa(lp2185
g316
ag314
aa(lp2186
g314
ag312
aa(lp2187
g310
aI901
aa(lp2188
g308
aI902
aa(lp2189
g306
aI903
aa(lp2190
g304
aI904
aa(lp2191
g316
aI905
aa(lp2192
g314
aI906
aa(lp2193
g312
aI907
aasS'_tjlist'
p2194
(lp2195
I101
aI102
aI103
aI104
aI105
aI106
aI107
aI108
aI109
aI110
aI111
aI201
aI202
aI203
aI204
aI205
aI206
aI207
aI301
aI302
aI303
aI304
aI305
aI306
aI401
aI402
aI403
aI404
aI501
aI502
aI503
aI504
aI505
aI506
aI507
aI508
aI601
aI602
aI603
aI604
aI605
aI606
aI607
aI608
aI701
aI702
aI703
aI704
aI705
aI706
aI707
aI708
aI709
aI801
aI802
aI803
aI804
aI805
aI901
aI902
aI903
aI904
aI905
aI906
aI907
asb.